target datalayout = "e-m:e-p270:32:32-p271:32:32-p272:64:64-i64:64-i128:128-f80:128-n8:16:32:64-S128"
target triple = "x86_64-pc-linux-gnu"

%"struct.clang::CodeGen::ConstantEmitter::AbstractState" = type { i8, i64 }
%"class.clang::CodeGen::ConstantEmitter" = type { ptr, ptr, i8, i8, i8, i8, i8, i32, %"class.llvm::SmallVector" }
%"class.llvm::SmallVector" = type { %"class.llvm::SmallVectorImpl", %"struct.llvm::SmallVectorStorage" }
%"class.llvm::SmallVectorImpl" = type { %"class.llvm::SmallVectorTemplateBase" }
%"class.llvm::SmallVectorTemplateBase" = type { %"class.llvm::SmallVectorTemplateCommon" }
%"class.llvm::SmallVectorTemplateCommon" = type { %"class.llvm::SmallVectorBase" }
%"class.llvm::SmallVectorBase" = type { ptr, i32, i32 }
%"struct.llvm::SmallVectorStorage" = type { [64 x i8] }
%"class.clang::QualType" = type { %"class.llvm::PointerIntPair.4" }
%"class.llvm::PointerIntPair.4" = type { %"struct.llvm::detail::PunnedPointer.5" }
%"struct.llvm::detail::PunnedPointer.5" = type { [8 x i8] }

; Function Attrs: mustprogress nounwind uwtable
define dso_local noundef ptr @_ZN5clang7CodeGen15ConstantEmitter22validateAndPopAbstractEPN4llvm8ConstantENS1_13AbstractStateE(ptr noundef nonnull align 8 dereferenceable(112) %0, ptr noundef %1, i8 %2, i64 %3) #0 align 2 {
  %5 = alloca %"struct.clang::CodeGen::ConstantEmitter::AbstractState", align 8
  %6 = alloca ptr, align 8
  %7 = alloca ptr, align 8
  %8 = getelementptr inbounds nuw { i8, i64 }, ptr %5, i32 0, i32 0
  store i8 %2, ptr %8, align 8
  %9 = getelementptr inbounds nuw { i8, i64 }, ptr %5, i32 0, i32 1
  store i64 %3, ptr %9, align 8
  store ptr %0, ptr %6, align 8
  store ptr %1, ptr %7, align 8
  %10 = load ptr, ptr %6, align 8
  %11 = getelementptr inbounds nuw %"struct.clang::CodeGen::ConstantEmitter::AbstractState", ptr %5, i32 0, i32 0
  %12 = load i8, ptr %11, align 8
  %13 = trunc i8 %12 to i1
  %14 = getelementptr inbounds nuw %"class.clang::CodeGen::ConstantEmitter", ptr %10, i32 0, i32 2
  %15 = zext i1 %13 to i8
  store i8 %15, ptr %14, align 8
  %16 = load ptr, ptr %7, align 8
  ret ptr %16
}

; Function Attrs: mustprogress nounwind uwtable
define linkonce_odr hidden { i8, i64 } @_ZN5clang7CodeGen15ConstantEmitter12pushAbstractEv(ptr noundef nonnull align 8 dereferenceable(112) %0) #0 comdat align 2 {
  %2 = alloca %"struct.clang::CodeGen::ConstantEmitter::AbstractState", align 8
  %3 = alloca ptr, align 8
  store ptr %0, ptr %3, align 8
  %4 = load ptr, ptr %3, align 8
  %5 = getelementptr inbounds nuw %"struct.clang::CodeGen::ConstantEmitter::AbstractState", ptr %2, i32 0, i32 0
  %6 = getelementptr inbounds nuw %"class.clang::CodeGen::ConstantEmitter", ptr %4, i32 0, i32 2
  %7 = load i8, ptr %6, align 8
  %8 = trunc i8 %7 to i1
  %9 = zext i1 %8 to i8
  store i8 %9, ptr %5, align 8
  %10 = getelementptr inbounds nuw %"struct.clang::CodeGen::ConstantEmitter::AbstractState", ptr %2, i32 0, i32 1
  %11 = getelementptr inbounds nuw %"class.clang::CodeGen::ConstantEmitter", ptr %4, i32 0, i32 8
  %12 = call noundef i64 @_ZNK4llvm15SmallVectorBaseIjE4sizeEv(ptr noundef nonnull align 8 dereferenceable(16) %11)
  store i64 %12, ptr %10, align 8
  %13 = getelementptr inbounds nuw %"class.clang::CodeGen::ConstantEmitter", ptr %4, i32 0, i32 2
  store i8 1, ptr %13, align 8
  %14 = load { i8, i64 }, ptr %2, align 8
  ret { i8, i64 } %14
}

; Function Attrs: mustprogress nounwind uwtable
define dso_local noundef ptr @_ZN5clang7CodeGen15ConstantEmitter15tryEmitAbstractEPKNS_4ExprENS_8QualTypeE(ptr noundef nonnull align 8 dereferenceable(112) %0, ptr noundef %1, i64 %2) #0 align 2 {
  %4 = alloca %"class.clang::QualType", align 8
  %5 = alloca ptr, align 8
  %6 = alloca ptr, align 8
  %7 = alloca %"struct.clang::CodeGen::ConstantEmitter::AbstractState", align 8
  %8 = alloca ptr, align 8
  %9 = alloca %"class.clang::QualType", align 8
  %10 = alloca %"struct.clang::CodeGen::ConstantEmitter::AbstractState", align 8
  %11 = getelementptr inbounds nuw %"class.clang::QualType", ptr %4, i32 0, i32 0
  %12 = getelementptr inbounds nuw %"class.llvm::PointerIntPair.4", ptr %11, i32 0, i32 0
  %13 = getelementptr inbounds nuw %"struct.llvm::detail::PunnedPointer.5", ptr %12, i32 0, i32 0
  store i64 %2, ptr %13, align 8
  store ptr %0, ptr %5, align 8
  store ptr %1, ptr %6, align 8
  %14 = load ptr, ptr %5, align 8
  %15 = call { i8, i64 } @_ZN5clang7CodeGen15ConstantEmitter12pushAbstractEv(ptr noundef nonnull align 8 dereferenceable(112) %14)
  %16 = getelementptr inbounds nuw { i8, i64 }, ptr %7, i32 0, i32 0
  %17 = extractvalue { i8, i64 } %15, 0
  store i8 %17, ptr %16, align 8
  %18 = getelementptr inbounds nuw { i8, i64 }, ptr %7, i32 0, i32 1
  %19 = extractvalue { i8, i64 } %15, 1
  store i64 %19, ptr %18, align 8
  %20 = load ptr, ptr %6, align 8
  call void @llvm.memcpy.p0.p0.i64(ptr align 8 %9, ptr align 8 %4, i64 8, i1 false)
  %21 = getelementptr inbounds nuw %"class.clang::QualType", ptr %9, i32 0, i32 0
  %22 = getelementptr inbounds nuw %"class.llvm::PointerIntPair.4", ptr %21, i32 0, i32 0
  %23 = getelementptr inbounds nuw %"struct.llvm::detail::PunnedPointer.5", ptr %22, i32 0, i32 0
  %24 = load i64, ptr %23, align 8
  %25 = call noundef ptr @_ZN5clang7CodeGen15ConstantEmitter14tryEmitPrivateEPKNS_4ExprENS_8QualTypeE(ptr noundef nonnull align 8 dereferenceable(112) %14, ptr noundef %20, i64 %24)
  store ptr %25, ptr %8, align 8
  %26 = load ptr, ptr %8, align 8
  call void @llvm.memcpy.p0.p0.i64(ptr align 8 %10, ptr align 8 %7, i64 16, i1 false)
  %27 = getelementptr inbounds nuw { i8, i64 }, ptr %10, i32 0, i32 0
  %28 = load i8, ptr %27, align 8
  %29 = getelementptr inbounds nuw { i8, i64 }, ptr %10, i32 0, i32 1
  %30 = load i64, ptr %29, align 8
  %31 = call noundef ptr @_ZN5clang7CodeGen15ConstantEmitter22validateAndPopAbstractEPN4llvm8ConstantENS1_13AbstractStateE(ptr noundef nonnull align 8 dereferenceable(112) %14, ptr noundef %26, i8 %28, i64 %30)
  ret ptr %31
}