; Function Attrs: mustprogress nounwind uwtable
define dso_local noundef ptr @_ZN5clang7CodeGen15ConstantEmitter15tryEmitAbstractEPKNS_4ExprENS_8QualTypeE(ptr noundef nonnull align 8 dereferenceable(112) %0, ptr noundef %1, i64 %2) local_unnamed_addr #1 align 2 {
  %4 = getelementptr inbounds nuw i8, ptr %0, i64 16
  %5 = load i8, ptr %4, align 8
  %6 = and i8 %5, 1
  %7 = getelementptr inbounds nuw i8, ptr %0, i64 32
  %8 = tail call noundef i64 @_ZNK4llvm15SmallVectorBaseIjE4sizeEv(ptr noundef nonnull align 8 dereferenceable(16) %7) #20
  store i8 1, ptr %4, align 8
  %9 = tail call noundef ptr @_ZN5clang7CodeGen15ConstantEmitter14tryEmitPrivateEPKNS_4ExprENS_8QualTypeE(ptr noundef nonnull align 8 dereferenceable(112) %0, ptr noundef %1, i64 %2)
  store i8 %6, ptr %4, align 8
  ret ptr %9
}